; Function Attrs: mustprogress nounwind uwtable
define void @_ZN9context_t9switch_toEv(ptr noundef nonnull align 8 dereferenceable(32) %0) local_unnamed_addr #2 align 2 {
  %2 = tail call align 8 ptr @llvm.threadlocal.address.p0(ptr align 8 @_ZL3cur)
  %3 = load ptr, ptr %2, align 8, !tbaa !17
  store ptr %0, ptr %2, align 8, !tbaa !17
  %4 = getelementptr inbounds nuw i8, ptr %3, i64 24
  %5 = load ptr, ptr %4, align 8, !tbaa !3
  %6 = getelementptr inbounds nuw i8, ptr %0, i64 24
  %7 = load ptr, ptr %6, align 8, !tbaa !3
  %8 = tail call i32 @swapcontext(ptr noundef %5, ptr noundef %7) #10
  %.not = icmp eq i32 %8, 0
  br i1 %.not, label %10, label %9

9:                                                ; preds = %1
  tail call void @abort() #11
  unreachable

10:                                               ; preds = %1
  ret void
}